(lp1
I304
aI277
aI304
aI277
aI304
aI277
aI304
aI277
aI304
aI374
aI304
aI304
aI277
aI304
aI277
aI304
aI277
aI304
aI277
aI304
aI357
aI271
aI304
aI322
aI294
aI258
aI258
aI258
aI366
aI379
aI266
aI322
aI293
aI340
aI266
aI266
aI366
aI258
aI258
aI258
aI315
aI256
aI322
aI258
aI258
aI258
aI322
aI258
aI258
aI258
aI322
aI258
aI258
aI258
aI318
aI392
aI257
aI257
aI322
aI258
aI258
aI258
aI322
aI258
aI258
aI258
aI284
aI259
aI284
aI259
aI318
aI257
aI257
aI284
aI259
aI284
aI259
aI322
aI258
aI258
aI258
aI390
aI357
aI266
aI372
aI372
aI318
aI257
aI257
aI357
aI271
aI304
aI304
aI277
aI304
aI277
aI304
aI277
aI304
aI277
aI304
aI322
aI295
aI258
aI258
aI258
aI367
aI367
aI322
aI258
aI258
aI258
aI297
aI368
aI304
aI304
aI277
aI304
aI277
aI304
aI277
aI304
aI277
aI304
aI277
aI345
aI266
aI302
aI366
aI328
aI257
aI257
aI328
aI257
aI257
aI304
aI277
aI304
aI277
aI304
aI277
aI304
aI277
aI309
aI309
aI304
aI277
aI304
aI277
aI304
aI277
aI304
aI277
aI310
aI347
aI266
aI310
aI291
aI337
aI266
aI358
aI272
aI272
aI357
aI271
aI322
aI258
aI258
aI258
aI291
aI358
aI272
aI272
aI358
aI272
aI272
aI337
aI322
aI258
aI258
aI258
aI293
aI366
aI338
aI318
aI257
aI257
aI322
aI258
aI258
aI258
aI322
aI258
aI258
aI258
aI322
aI258
aI258
aI258
aI304
aI278
aI308
aI404
aI304
aI278
aI308
aI404
aI304
aI278
aI304
aI277
aI315
aI256
aI318
aI257
aI257
aI315
aI256
aI318
aI257
aI257
aI315
aI256
aI318
aI257
aI257
aI315
aI256
aI318
aI257
aI257
aI318
aI257
aI257
aI318
aI257
aI257
aI302
aI275
aI346
aI302
aI275
aI346
aI347
aI266
aI354
aI306
aI369
aI305
aI278
aI305
aI278
aI352
aI266
aI306
aI369
aI309
aI304
aI304
aI304
aI304
aI304
aI277
aI277
aI277
aI277
aI277
aI301
aI275
aI301
aI275
aI346
aI347
aI266
aI346
aI300
aI275
aI300
aI275
aI346
aI346
aI347
aI266
aI290
aI260
aI260
aI289
aI259
aI288
aI259
aI288
aI322
aI258
aI258
aI258
aI322
aI258
aI258
aI258
aI290
aI260
aI260
aI289
aI322
aI258
aI258
aI258
aI288
aI259
aI288
aI259
aI322
aI258
aI258
aI258
aI351
aI304
aI304
aI304
aI304
aI304
aI278
aI277
aI277
aI278
aI283
aI335
aI313
aI379
aI266
aI322
aI258
aI258
aI258
aI322
aI258
aI258
aI258
aI322
aI258
aI258
aI258
aI315
aI379
aI266
aI256
aI318
aI257
aI257
aI315
aI256
aI318
aI257
aI257
aI315
aI379
aI266
aI256
aI315
aI256
aI334
aI256
aI331
aI257
aI257
aI331
aI257
aI257
aI330
aI256
aI334
aI322
aI258
aI258
aI258
aI318
aI257
aI257
aI318
aI257
aI257
aI315
aI256
aI313
aI322
aI258
aI258
aI258
aI318
aI257
aI257
aI318
aI257
aI257
aI315
aI256
aI322
aI258
aI258
aI258
aI318
aI257
aI257
aI318
aI257
aI257
aI293
aI366
aI339
aI266
aI315
aI256
aI295
aI367
aI367
aI318
aI318
aI295
aI367
aI367
aI322
aI258
aI258
aI258
aI284
aI259
aI284
aI259
aI318
aI257
aI257
aI318
aI257
aI257
aI322
aI258
aI258
aI258
aI291
aI344
aI267
aI267
aI344
aI267
aI267
aI344
aI267
aI323
aI258
aI258
aI258
aI304
aI283
aI335
aI304
aI277
aI304
aI277
aI304
aI277
aI304
aI277
aI304
aI322
aI258
aI258
aI258
aI322
aI258
aI258
aI258
aI390
aI372
aI372
aI358
aI266
aI266
aI382
aI330
aI256
aI330
aI256
aI330
aI256
aI379
aI266
aI256
aI330
aI379
aI266
aI318
aI257
aI257
aI379
aI266
aI300
aI275
aI300
aI275
aI347
aI302
aI275
aI346
aI322
aI294
aI376
aI322
aI366
aI258
aI258
aI258
aI258
aI258
aI258
aI285
aI260
aI260
aI284
aI259
aI322
aI258
aI258
aI258
aI322
aI258
aI258
aI258
aI293
aI366
aI339
aI266
aI304
aI304
aI277
aI304
aI277
aI304
aI277
aI304
aI277
aI304
aI379
aI266
aI285
aI260
aI260
aI286
aI259
aI375
aI322
aI258
aI258
aI258
aI290
aI260
aI260
aI289
aI259
aI288
aI259
aI290
aI260
aI260
aI313
aI318
aI257
aI257
aI318
aI257
aI257
aI318
aI257
aI257
aI289
aI289
aI288
aI259
aI288
aI259
aI289
aI289
aI259
aI288
aI259
aI288
aI259
aI289
aI289
aI259
aI296
aI366
aI275
aI322
aI258
aI258
aI258
aI322
aI258
aI258
aI258
aI322
aI258
aI258
aI258
aI322
aI258
aI258
aI258
aI322
aI258
aI258
aI258
aI278
aI277
aI277
aI277
aI277
aI266
aI307
aI353
aI305
aI304
aI304
aI304
aI304
aI305
aI306
aI369
aI352
aI327
aI256
aI327
aI257
aI257
aI327
aI257
aI257
aI321
aI257
aI257
aI365
aI267
aI267
aI267
aI382
aI330
aI256
aI330
aI256
aI256
aI330
aI379
aI266
aI352
aI305
aI278
aI306
aI369
aI353
aI307
aI341
aI269
aI269
aI305
aI278
aI256
aI330
aI379
aI266
aI318
aI257
aI257
aI379
aI266
aI382
aI330
aI256
aI330
aI256
aI256
aI330
aI379
aI266
aI310
aI346
aI302
aI275
aI347
aI353
aI307
aI278
aI353
aI310
aI307
aI341
aI269
aI269
aI256
aI330
aI379
aI266
aI318
aI257
aI257
aI379
aI266
aI382
aI331
aI257
aI257
aI330
aI256
aI331
aI257
aI257
aI330
aI256
aI377
aI407
aI372
aI372
aI372
aI322
aI258
aI258
aI258
aI290
aI260
aI260
aI289
aI259
aI288
aI259
aI288
aI259
aI322
aI258
aI258
aI258
aI304
aI277
aI304
aI277
aI304
aI277
aI304
aI277
aI304
aI277
aI304
aI390
aI372
aI372
aI357
aI266
aI322
aI258
aI258
aI258
aI362
aI323
aI323
aI323
aI270
aI270
aI270
aI270
aI270
aI270
aI270
aI270
aI270
aI379
aI266
aI322
aI258
aI258
aI258
aI281
aI282
aI271
aI258
aI322
aI316
aI262
aI401
aI401
aI258
aI258
aI304
aI304
aI277
aI304
aI277
aI304
aI277
aI304
aI277
aI304
aI322
aI258
aI258
aI258
aI322
aI258
aI258
aI258
aI389
aI372
aI372
aI372
aI341
aI266
aI318
aI257
aI257
aI322
aI258
aI258
aI258
aI304
aI277
aI304
aI277
aI304
aI277
aI304
aI277
aI304
aI277
aI304
aI294
aI366
aI376
aI322
aI258
aI258
aI258
aI334
aI256
aI331
aI257
aI257
aI327
aI257
aI257
aI331
aI257
aI257
aI334
aI256
aI330
aI256
aI377
aI406
aI372
aI372
aI377
aI322
aI258
aI258
aI258
aI318
aI257
aI257
aI390
aI372
aI372
aI357
aI266
aI318
aI257
aI257
aI322
aI258
aI258
aI258
aI322
aI258
aI258
aI258
aI304
aI394
aI304
aI278
aI304
aI278
aI304
aI277
aI304
aI277
aI304
aI322
aI258
aI258
aI258
aI315
aI379
aI266
aI256
aI318
aI257
aI257
aI315
aI256
aI318
aI257
aI257
aI315
aI379
aI266
aI256
aI315
aI256
aI334
aI256
aI331
aI257
aI257
aI331
aI257
aI257
aI330
aI256
aI334
aI322
aI258
aI258
aI258
aI318
aI257
aI257
aI318
aI257
aI257
aI315
aI256
aI313
aI322
aI258
aI258
aI258
aI318
aI257
aI257
aI318
aI257
aI257
aI315
aI256
aI322
aI258
aI258
aI258
aI318
aI257
aI257
aI318
aI257
aI257
aI293
aI366
aI339
aI266
aI315
aI256
aI295
aI367
aI367
aI318
aI318
aI293
aI366
aI340
aI266
aI266
aI315
aI379
aI266
aI256
aI318
aI257
aI257
aI315
aI256
aI318
aI257
aI257
aI315
aI379
aI266
aI256
aI315
aI256
aI334
aI256
aI331
aI257
aI257
aI331
aI257
aI257
aI330
aI256
aI334
aI322
aI258
aI258
aI258
aI318
aI257
aI257
aI318
aI257
aI257
aI315
aI256
aI313
aI322
aI258
aI258
aI258
aI318
aI257
aI257
aI318
aI257
aI257
aI315
aI256
aI322
aI258
aI258
aI258
aI318
aI257
aI257
aI318
aI257
aI257
aI293
aI366
aI339
aI266
aI315
aI256
aI295
aI367
aI367
aI318
aI318
aI293
aI366
aI340
aI266
aI266
aI300
aI275
aI350
aI300
aI275
aI300
aI274
aI300
aI274
aI300
aI274
aI300
aI275
aI350
aI300
aI275
aI300
aI274
aI382
aI331
aI257
aI257
aI382
aI331
aI257
aI257
aI331
aI257
aI257
aI407
aI377
aI372
aI372
aI372
aI315
aI256
aI322
aI258
aI258
aI258
aI322
aI258
aI258
aI258
aI304
aI277
aI304
aI277
aI304
aI277
aI304
aI277
aI304
aI277
aI304
aI377
aI406
aI379
aI266
aI372
aI372
aI382
aI331
aI331
aI257
aI257
aI257
aI257
aI330
aI256
aI379
aI266
aI330
aI256
aI377
aI407
aI372
aI372
aI372
aI383
aI318
aI257
aI257
aI318
aI257
aI257
aI383
aI318
aI257
aI257
aI318
aI257
aI257
aI322
aI258
aI258
aI258
aI375
aI318
aI257
aI257
aI318
aI257
aI257
aI322
aI258
aI258
aI258
aI304
aI278
aI304
aI277
aI304
aI277
aI304
aI277
aI304
aI278
aI304
aI394
aI318
aI294
aI376
aI322
aI366
aI257
aI257
aI258
aI258
aI258
aI322
aI258
aI258
aI258
aI382
aI331
aI257
aI257
aI330
aI256
aI331
aI257
aI257
aI331
aI257
aI257
aI318
aI257
aI257
aI377
aI407
aI372
aI372
aI372
aI322
aI258
aI258
aI258
aI313
aI375
aI322
aI258
aI258
aI258
aI375
aI322
aI258
aI258
aI258
aI322
aI258
aI258
aI258
aI328
aI257
aI257
aI328
aI257
aI257
aI328
aI257
aI257
aI328
aI257
aI257
aI322
aI258
aI258
aI258
aI318
aI257
aI257
aI300
aI300
aI275
aI348
aI267
aI348
aI267
aI302
aI276
aI354
aI306
aI369
aI305
aI278
aI305
aI278
aI352
aI266
aI306
aI384
aI309
aI304
aI304
aI304
aI304
aI304
aI277
aI277
aI277
aI277
aI277
aI334
aI256
aI330
aI256
aI379
aI266
aI327
aI257
aI257
aI331
aI257
aI257
aI334
aI256
aI330
aI256
aI318
aI257
aI257
aI377
aI406
aI372
aI372
aI377
aI322
aI258
aI258
aI258
aI304
aI277
aI304
aI277
aI304
aI277
aI304
aI277
aI304
aI277
aI304
aI277
aI313
aI318
aI257
aI257
aI318
aI257
aI257
aI318
aI257
aI257
aI289
aI289
aI288
aI259
aI290
aI260
aI260
aI322
aI258
aI258
aI258
aI322
aI258
aI258
aI258
aI322
aI258
aI258
aI258
aI351
aI304
aI278
aI304
aI278
aI351
aI304
aI278
aI304
aI278
aI373
aI300
aI275
aI300
aI274
aI310
aI304
aI277
aI304
aI277
aI304
aI277
aI304
aI277
aI310
aI304
aI304
aI277
aI304
aI277
aI304
aI277
aI304
aI277
aI304
aI379
aI266
aI318
aI257
aI257
aI322
aI258
aI258
aI258
aI286
aI259
aI288
aI259
aI375
aI322
aI258
aI258
aI258
aI289
aI259
aI290
aI260
aI260
aI323
aI258
aI258
aI258
aI344
aI267
aI284
aI275
aI322
aI258
aI258
aI258
aI323
aI258
aI258
aI258
aI344
aI267
aI288
aI275
aI289
aI259
aI290
aI260
aI260
aI322
aI258
aI258
aI258
aI337
aI284
aI259
aI322
aI258
aI258
aI258
aI389
aI377
aI372
aI372
aI372
aI322
aI258
aI258
aI258
aI304
aI277
aI304
aI277
aI304
aI277
aI304
aI277
aI304
aI277
aI304
aI288
aI259
aI290
aI260
aI260
aI382
aI330
aI256
aI330
aI256
aI331
aI257
aI257
aI352
aI305
aI278
aI306
aI369
aI353
aI307
aI341
aI269
aI269
aI305
aI278
aI256
aI330
aI379
aI266
aI318
aI257
aI257
aI379
aI266
aI382
aI330
aI256
aI330
aI256
aI331
aI257
aI257
aI310
aI346
aI302
aI275
aI347
aI353
aI307
aI278
aI353
aI310
aI307
aI341
aI269
aI269
aI256
aI330
aI379
aI266
aI318
aI257
aI257
aI379
aI266
aI306
aI306
aI305
aI305
aI266
aI266
aI278
aI278
aI384
aI369
aI352
aI352
aI382
aI330
aI256
aI330
aI256
aI331
aI257
aI257
aI352
aI305
aI278
aI306
aI369
aI352
aI266
aI306
aI369
aI305
aI322
aI258
aI258
aI258
aI256
aI330
aI379
aI266
aI318
aI257
aI257
aI379
aI266
aI382
aI330
aI256
aI330
aI256
aI331
aI257
aI257
aI352
aI305
aI278
aI306
aI369
aI352
aI266
aI306
aI369
aI305
aI278
aI256
aI330
aI379
aI266
aI318
aI257
aI257
aI379
aI266
aI275
aI296
aI366
aI322
aI258
aI258
aI258
aI331
aI257
aI257
aI330
aI256
aI331
aI257
aI257
aI334
aI256
aI327
aI257
aI257
aI334
aI256
aI352
aI305
aI278
aI306
aI369
aI353
aI307
aI341
aI269
aI269
aI305
aI278
aI368
aI297
aI322
aI318
aI258
aI258
aI258
aI257
aI257
aI322
aI258
aI258
aI258
aI351
aI304
aI304
aI304
aI304
aI304
aI341
aI278
aI277
aI277
aI278
aI269
aI269
aI315
aI379
aI266
aI256
aI318
aI257
aI257
aI315
aI256
aI318
aI257
aI257
aI315
aI379
aI266
aI256
aI315
aI256
aI334
aI256
aI331
aI257
aI257
aI331
aI257
aI257
aI330
aI256
aI334
aI322
aI258
aI258
aI258
aI318
aI257
aI257
aI318
aI257
aI257
aI315
aI256
aI313
aI322
aI258
aI258
aI258
aI318
aI257
aI257
aI318
aI257
aI257
aI315
aI256
aI322
aI258
aI258
aI258
aI318
aI257
aI257
aI318
aI257
aI257
aI295
aI367
aI367
aI338
aI330
aI331
aI331
aI331
aI293
aI366
aI293
aI256
aI257
aI257
aI257
aI257
aI257
aI257
aI322
aI258
aI258
aI258
aI366
aI339
aI266
aI322
aI258
aI258
aI258
aI304
aI278
aI304
aI277
aI304
aI277
aI304
aI277
aI304
aI278
aI304
aI399
aI382
aI300
aI275
aI300
aI274
aI331
aI257
aI257
aI331
aI257
aI257
aI304
aI277
aI304
aI277
aI304
aI277
aI304
aI277
aI304
aI304
aI277
aI304
aI277
aI304
aI277
aI304
aI277
aI304
aI315
aI379
aI266
aI256
aI318
aI257
aI257
aI284
aI284
aI259
aI318
aI257
aI257
aI315
aI256
aI334
aI256
aI331
aI257
aI257
aI331
aI257
aI257
aI330
aI256
aI334
aI322
aI258
aI258
aI258
aI318
aI257
aI257
aI318
aI257
aI257
aI315
aI256
aI313
aI322
aI258
aI258
aI258
aI318
aI257
aI257
aI318
aI257
aI257
aI315
aI256
aI322
aI258
aI258
aI258
aI318
aI257
aI257
aI318
aI257
aI257
aI318
aI257
aI257
aI315
aI256
aI322
aI258
aI258
aI258
aI322
aI258
aI258
aI258
aI362
aI323
aI323
aI323
aI323
aI270
aI270
aI270
aI270
aI270
aI270
aI270
aI270
aI270
aI270
aI270
aI270
aI362
aI321
aI323
aI323
aI323
aI270
aI270
aI270
aI270
aI270
aI270
aI270
aI270
aI270
aI270
aI270
aI322
aI258
aI258
aI258
aI322
aI258
aI258
aI258
aI318
aI257
aI257
aI339
aI266
aI298
aI366
aI376
aI318
aI257
aI257
aI322
aI258
aI258
aI258
aI331
aI257
aI257
aI300
aI274
aI300
aI274
aI300
aI274
aI300
aI274
aI290
aI260
aI260
aI289
aI259
aI288
aI259
aI288
aI259
aI289
aI259
aI290
aI260
aI260
aI351
aI304
aI278
aI304
aI278
aI304
aI304
aI277
aI304
aI277
aI339
aI266
aI293
aI366
aI322
aI258
aI258
aI258
aI304
aI304
aI304
aI305
aI305
aI304
aI306
aI384
aI352
aI266
aI306
aI369
aI352
aI266
aI277
aI277
aI277
aI277
aI382
aI331
aI257
aI257
aI331
aI257
aI257
aI331
aI257
aI257
aI330
aI256
aI341
aI266
aI406
aI372
aI372
aI377
aI322
aI258
aI258
aI258
aI362
aI321
aI323
aI323
aI323
aI270
aI270
aI270
aI270
aI270
aI270
aI270
aI270
aI270
aI270
aI270
aI318
aI257
aI257
aI379
aI266
aI368
aI297
aI318
aI318
aI257
aI257
aI257
aI257
aI318
aI257
aI257
aI318
aI257
aI257
aI318
aI257
aI257
aI331
aI257
aI257
aI330
aI256
aI331
aI257
aI257
aI334
aI256
aI327
aI257
aI257
aI334
aI256
aI352
aI305
aI278
aI306
aI369
aI352
aI266
aI306
aI369
aI305
aI322
aI258
aI258
aI258
aI331
aI257
aI257
aI330
aI256
aI331
aI257
aI257
aI334
aI256
aI327
aI257
aI257
aI334
aI256
aI352
aI305
aI278
aI306
aI369
aI352
aI266
aI306
aI369
aI305
aI322
aI258
aI258
aI258
aI331
aI257
aI257
aI330
aI256
aI331
aI257
aI257
aI334
aI256
aI327
aI257
aI257
aI334
aI256
aI352
aI305
aI278
aI306
aI369
aI352
aI266
aI306
aI369
aI305
aI322
aI258
aI258
aI258
aI294
aI275
aI366
aI379
aI266
aI275
aI293
aI340
aI266
aI266
aI366
aI382
aI330
aI331
aI331
aI330
aI256
aI257
aI257
aI257
aI257
aI256
aI322
aI258
aI258
aI258
aI322
aI258
aI258
aI258
aI354
aI306
aI369
aI305
aI278
aI305
aI278
aI353
aI307
aI278
aI309
aI304
aI304
aI304
aI304
aI304
aI277
aI277
aI277
aI277
aI277
aI257
aI257
aI318
aI387
aI387
aI318
aI257
aI257
aI322
aI258
aI258
aI258
aI322
aI258
aI258
aI258
aI351
aI307
aI304
aI277
aI304
aI278
aI304
aI277
aI304
aI277
aI339
aI266
aI293
aI366
aI322
aI258
aI258
aI258
aI322
aI258
aI258
aI258
aI390
aI372
aI372
aI357
aI266
aI322
aI258
aI258
aI258
aI304
aI277
aI304
aI277
aI304
aI277
aI304
aI277
aI304
aI304
aI277
aI304
aI304
aI277
aI304
aI277
aI304
aI277
aI304
aI277
aI304
aI304
aI277
aI304
aI313
aI322
aI322
aI322
aI322
aI258
aI258
aI258
aI258
aI258
aI258
aI258
aI258
aI258
aI258
aI258
aI258
aI351
aI304
aI304
aI304
aI304
aI304
aI278
aI277
aI277
aI278
aI318
aI257
aI257
aI322
aI258
aI258
aI258
aI322
aI258
aI258
aI258
aI386
aI298
aI384
aI386
aI322
aI258
aI258
aI258
aI390
aI322
aI258
aI258
aI258
aI372
aI372
aI377
aI322
aI258
aI258
aI258
aI322
aI258
aI258
aI258
aI293
aI366
aI339
aI266
aI304
aI304
aI379
aI266
aI304
aI277
aI304
aI277
aI304
aI277
aI304
aI277
aI383
aI318
aI257
aI257
aI318
aI257
aI257
aI318
aI257
aI257
aI318
aI257
aI257
aI318
aI257
aI257
aI348
aI267
aI302
aI276
aI348
aI267
aI333
aI257
aI257
aI333
aI257
aI257
aI258
aI258
aI258
aI322
aI257
aI257
aI318
aI257
aI257
aI318
aI257
aI257
aI318
aI257
aI257
aI318
aI258
aI258
aI258
aI322
aI257
aI257
aI266
aI318
aI379
aI257
aI257
aI318
aI257
aI257
aI318
aI257
aI257
aI318
aI257
aI257
aI318
aI257
aI257
aI266
aI318
aI379
aI315
aI379
aI266
aI256
aI318
aI257
aI257
aI315
aI256
aI318
aI257
aI257
aI315
aI379
aI266
aI256
aI315
aI256
aI334
aI256
aI331
aI257
aI257
aI331
aI257
aI257
aI330
aI256
aI334
aI322
aI258
aI258
aI258
aI318
aI257
aI257
aI318
aI257
aI257
aI315
aI256
aI313
aI322
aI258
aI258
aI258
aI318
aI257
aI257
aI318
aI257
aI257
aI315
aI256
aI322
aI258
aI258
aI258
aI318
aI257
aI257
aI318
aI257
aI257
aI295
aI367
aI367
aI364
aI267
aI267
aI300
aI275
aI300
aI274
aI331
aI257
aI257
aI333
aI257
aI257
aI390
aI372
aI372
aI322
aI258
aI258
aI258
aI322
aI258
aI258
aI258
aI372
aI391
aI322
aI258
aI258
aI258
aI322
aI258
aI258
aI258
aI366
aI296
aI318
aI257
aI257
aI392
aI275
aI360
aI266
aI302
aI275
aI346
aI331
aI257
aI257
aI331
aI257
aI257
aI322
aI258
aI258
aI258
aI377
aI406
aI372
aI372
aI377
aI318
aI257
aI257
aI318
aI257
aI257
aI377
aI406
aI372
aI372
aI377
aI322
aI258
aI258
aI258
aI370
aI299
aI337
aI322
aI258
aI258
aI258
aI351
aI304
aI304
aI304
aI304
aI304
aI278
aI277
aI277
aI278
aI318
aI257
aI257
aI304
aI304
aI304
aI304
aI304
aI304
aI277
aI277
aI277
aI277
aI277
aI300
aI274
aI300
aI274
aI300
aI274
aI312
aI311
aI280
aI311
aI280
aI311
aI280
aI311
aI280
aI311
aI280
aI312
aI351
aI304
aI304
aI304
aI304
aI304
aI278
aI277
aI277
aI278
aI293
aI366
aI340
aI266
aI266
aI304
aI375
aI304
aI277
aI304
aI277
aI304
aI277
aI304
aI277
aI304
aI304
aI304
aI277
aI304
aI277
aI304
aI277
aI304
aI277
aI304
aI297
aI368
aI295
aI367
aI367
aI297
aI368
aI295
aI367
aI367
aI304
aI375
aI304
aI277
aI304
aI277
aI304
aI277
aI304
aI277
aI304
aI304
aI304
aI277
aI304
aI277
aI304
aI277
aI304
aI277
aI304
aI297
aI368
aI315
aI256
aI379
aI266
aI380
aI297
aI368
aI315
aI256
aI379
aI266
aI380
aI382
aI331
aI257
aI257
aI331
aI257
aI257
aI330
aI256
aI379
aI266
aI330
aI256
aI379
aI266
aI365
aI267
aI267
aI267
aI317
aI256
aI318
aI257
aI257
aI318
aI257
aI257
aI386
aI318
aI257
aI257
aI295
aI367
aI367
aI330
aI256
aI382
aI330
aI256
aI347
aI310
aI346
aI302
aI275
aI353
aI307
aI278
aI353
aI310
aI307
aI341
aI269
aI269
aI330
aI256
aI379
aI266
aI330
aI256
aI379
aI266
aI300
aI275
aI303
aI300
aI274
aI300
aI275
aI347
aI266
aI300
aI275
aI300
aI274
aI303
aI300
aI275
aI347
aI266
aI351
aI304
aI278
aI304
aI277
aI304
aI277
aI304
aI304
aI277
aI304
aI277
aI304
aI277
aI304
aI277
aI304
aI304
aI304
aI277
aI304
aI277
aI304
aI277
aI304
aI277
aI304
aI322
aI258
aI258
aI258
aI379
aI266
aI363
aI267
aI321
aI257
aI257
aI321
aI257
aI257
aI321
aI257
aI257
aI318
aI257
aI257
aI315
aI256
aI318
aI257
aI257
aI318
aI257
aI257
aI309
aI309
aI304
aI277
aI304
aI277
aI304
aI277
aI304
aI277
aI304
aI304
aI277
aI304
aI277
aI304
aI277
aI304
aI277
aI304
aI297
aI368
aI295
aI367
aI367
aI297
aI368
aI295
aI367
aI367
aI309
aI309
aI304
aI277
aI304
aI277
aI304
aI277
aI304
aI277
aI304
aI304
aI277
aI304
aI277
aI304
aI277
aI304
aI277
aI304
aI297
aI368
aI315
aI256
aI379
aI266
aI380
aI297
aI368
aI315
aI256
aI379
aI266
aI380
aI290
aI260
aI260
aI410
aI302
aI366
aI347
aI266
aI310
aI304
aI277
aI304
aI277
aI304
aI277
aI304
aI277
aI310
aI322
aI379
aI266
aI258
aI258
aI258
aI351
aI304
aI278
aI304
aI278
aI351
aI304
aI304
aI277
aI304
aI277
aI304
aI277
aI304
aI277
aI304
aI304
aI277
aI304
aI277
aI304
aI277
aI304
aI277
aI304
aI277
aI304
aI375
aI322
aI258
aI258
aI258
aI353
aI307
aI278
aI353
aI304
aI278
aI304
aI304
aI277
aI304
aI277
aI304
aI277
aI304
aI277
aI304
aI389
aI372
aI372
aI372
aI318
aI257
aI257
aI322
aI258
aI258
aI258
aI309
aI309
aI304
aI277
aI304
aI277
aI304
aI277
aI304
aI277
aI304
aI277
aI304
aI277
aI304
aI277
aI304
aI277
aI304
aI277
aI304
aI277
aI322
aI258
aI258
aI258
aI293
aI366
aI339
aI266
aI337
aI288
aI259
aI304
aI304
aI277
aI304
aI277
aI304
aI277
aI304
aI277
aI304
aI277
aI366
aI296
aI318
aI257
aI257
aI275
aI322
aI258
aI258
aI258
aI258
aI258
aI258
aI322
aI318
aI257
aI257
aI258
aI258
aI258
aI322
aI304
aI277
aI304
aI304
aI304
aI277
aI304
aI304
aI277
aI304
aI277
aI304
aI277
aI304
aI277
aI304
aI322
aI258
aI258
aI258
aI322
aI258
aI258
aI258
aI331
aI257
aI257
aI331
aI257
aI257
aI331
aI257
aI257
aI334
aI256
aI327
aI257
aI257
aI334
aI310
aI346
aI302
aI275
aI347
aI353
aI307
aI278
aI353
aI310
aI307
aI341
aI269
aI269
aI304
aI375
aI304
aI277
aI304
aI277
aI304
aI277
aI304
aI277
aI304
aI304
aI304
aI277
aI304
aI277
aI304
aI277
aI304
aI277
aI304
aI295
aI367
aI367
aI295
aI367
aI367
aI352
aI306
aI352
aI306
aI304
aI304
aI266
aI266
aI278
aI278
aI384
aI384
aI318
aI257
aI257
aI379
aI266
aI318
aI257
aI257
aI318
aI257
aI257
aI318
aI257
aI257
aI318
aI257
aI257
aI318
aI257
aI257
aI318
aI257
aI257
aI322
aI258
aI258
aI258
aI304
aI277
aI304
aI277
aI304
aI277
aI304
aI277
aI304
aI277
aI304
aI292
aI344
aI267
aI267
aI344
aI267
aI267
aI285
aI260
aI260
aI284
aI259
aI318
aI257
aI257
aI322
aI258
aI258
aI258
aI315
aI379
aI266
aI256
aI322
aI258
aI258
aI258
aI322
aI258
aI258
aI258
aI304
aI277
aI304
aI277
aI304
aI277
aI304
aI277
aI304
aI386
aI304
aI304
aI277
aI304
aI277
aI304
aI277
aI304
aI277
aI304
aI357
aI271
aI304
aI318
aI379
aI266
aI257
aI257
aI322
aI258
aI258
aI258
aI304
aI277
aI304
aI277
aI304
aI277
aI304
aI277
aI304
aI277
aI304
aI375
aI318
aI257
aI257
aI322
aI258
aI258
aI258
aI300
aI274
aI300
aI274
aI331
aI257
aI257
aI331
aI257
aI257
aI331
aI257
aI257
aI331
aI257
aI257
aI331
aI257
aI257
aI331
aI257
aI257
aI331
aI257
aI257
aI330
aI256
aI322
aI258
aI258
aI258
aI382
aI330
aI256
aI330
aI256
aI256
aI330
aI379
aI266
aI347
aI310
aI353
aI307
aI352
aI266
aI341
aI269
aI269
aI306
aI369
aI310
aI346
aI302
aI275
aI256
aI330
aI379
aI266
aI318
aI257
aI257
aI379
aI266
aI322
aI258
aI258
aI258
aI293
aI366
aI339
aI266
aI337
aI284
aI259
aI322
aI258
aI258
aI258
aI354
aI306
aI369
aI305
aI278
aI305
aI278
aI305
aI278
aI305
aI278
aI309
aI304
aI304
aI304
aI304
aI304
aI277
aI277
aI277
aI277
aI277
aI378
aI406
aI372
aI372
aI356
aI286
aI259
aI284
aI259
aI318
aI257
aI288
aI286
aI259
aI293
aI366
aI340
aI322
aI258
aI258
aI258
aI318
aI257
aI257
aI297
aI368
aI304
aI304
aI277
aI304
aI277
aI304
aI277
aI304
aI277
aI304
aI277
aI304
aI277
aI304
aI277
aI304
aI277
aI304
aI277
aI304
aI277
aI304
aI380
aI304
aI277
aI304
aI277
aI304
aI277
aI304
aI277
aI304
aI277
aI304
aI379
aI266
aI304
aI278
aI351
aI304
aI278
aI304
aI277
aI304
aI304
aI277
aI304
aI277
aI304
aI277
aI304
aI277
aI304
aI351
aI309
aI304
aI277
aI304
aI277
aI304
aI277
aI304
aI278
aI351
aI309
aI304
aI277
aI304
aI277
aI304
aI277
aI304
aI278
aI331
aI257
aI257
aI330
aI256
aI331
aI257
aI257
aI334
aI256
aI327
aI257
aI257
aI334
aI256
aI352
aI305
aI278
aI306
aI369
aI352
aI266
aI306
aI369
aI305
aI322
aI258
aI258
aI258
aI300
aI275
aI300
aI275
aI347
aI266
aI302
aI275
aI346
aI300
aI275
aI300
aI275
aI348
aI267
aI348
aI267
aI302
aI276
aI331
aI257
aI257
aI331
aI257
aI257
aI331
aI257
aI257
aI331
aI257
aI257
aI331
aI257
aI257
aI322
aI357
aI266
aI258
aI258
aI258
aI390
aI357
aI266
aI318
aI322
aI258
aI258
aI258
aI257
aI257
aI372
aI372
aI266
aI379
aI318
aI257
aI257
aI330
aI256
aI382
aI331
aI257
aI257
aI331
aI257
aI257
aI330
aI256
aI379
aI266
aI304
aI278
aI304
aI277
aI304
aI277
aI304
aI277
aI304
aI278
aI304
aI285
aI260
aI260
aI284
aI259
aI318
aI257
aI257
aI379
aI266
aI379
aI266
aI318
aI257
aI257
aI318
aI257
aI257
aI322
aI258
aI258
aI258
aI313
aI397
aI397
aI397
aI322
aI258
aI258
aI258
aI318
aI257
aI257
aI318
aI257
aI257
aI318
aI257
aI257
aI318
aI257
aI257
aI334
aI256
aI334
aI331
aI257
aI257
aI331
aI257
aI257
aI330
aI256
aI322
aI258
aI258
aI258
aI315
aI256
aI322
aI258
aI258
aI258
aI322
aI258
aI258
aI258
aI318
aI295
aI257
aI257
aI367
aI367
aI322
aI258
aI258
aI258
aI258
aI258
aI258
aI322
aI257
aI257
aI318
aI257
aI257
aI318
aI258
aI258
aI258
aI322
aI340
aI266
aI266
aI298
aI366
aI340
aI266
aI266
aI354
aI306
aI384
aI305
aI278
aI305
aI278
aI352
aI266
aI306
aI369
aI309
aI304
aI304
aI304
aI304
aI304
aI277
aI277
aI277
aI277
aI277
aI330
aI256
aI382
aI330
aI256
aI310
aI346
aI302
aI275
aI347
aI353
aI307
aI278
aI353
aI310
aI307
aI341
aI269
aI269
aI330
aI256
aI379
aI266
aI330
aI256
aI379
aI266
aI318
aI257
aI257
aI377
aI406
aI372
aI372
aI378
aI406
aI372
aI372
aI378
aI407
aI372
aI372
aI372
aI310
aI346
aI302
aI275
aI347
aI353
aI307
aI278
aI353
aI310
aI307
aI341
aI269
aI269
aI382
aI330
aI256
aI331
aI257
aI257
aI331
aI257
aI257
aI331
aI257
aI257
aI347
aI266
aI310
aI304
aI277
aI304
aI277
aI304
aI304
aI277
aI310
aI300
aI274
aI300
aI275
aI283
aI335
aI300
aI275
aI300
aI274
aI301
aI275
aI346
aI347
aI266
aI351
aI304
aI309
aI304
aI304
aI304
aI278
aI277
aI277
aI278
aI309
aI304
aI304
aI304
aI304
aI304
aI277
aI277
aI277
aI277
aI277
aI353
aI307
aI278
aI353
aI304
aI278
aI304
aI277
aI304
aI278
aI300
aI275
aI300
aI274
aI300
aI274
aI300
aI275
aI347
aI266
aI321
aI257
aI257
aI363
aI267
aI321
aI257
aI257
aI321
aI257
aI257
aI318
aI257
aI257
aI318
aI257
aI257
aI318
aI257
aI257
aI304
aI304
aI277
aI304
aI277
aI304
aI277
aI304
aI277
aI304
aI277
aI351
aI304
aI304
aI304
aI304
aI304
aI278
aI277
aI277
aI278
aI322
aI258
aI258
aI258
aI349
aI302
aI366
aI349
aI266
aI302
aI366
aI412
aI290
aI260
aI260
aI266
aI304
aI304
aI278
aI304
aI394
aI304
aI278
aI304
aI277
aI304
aI277
aI339
aI266
aI293
aI366
aI318
aI257
aI257
aI318
aI257
aI257
aI293
aI366
aI339
aI266
aI337
aI288
aI259
aI304
aI304
aI304
aI304
aI277
aI304
aI304
aI304
aI277
aI304
aI277
aI304
aI277
aI304
aI277
aI304
aI277
aI304
aI277
aI304
aI277
aI304
aI277
aI353
aI353
aI304
aI278
aI304
aI277
aI304
aI277
aI304
aI278
aI331
aI257
aI257
aI331
aI257
aI257
aI331
aI257
aI257
aI334
aI256
aI327
aI257
aI257
aI334
aI352
aI305
aI278
aI306
aI369
aI352
aI266
aI306
aI369
aI305
aI322
aI258
aI258
aI258
aI406
aI372
aI372
aI377
aI377
aI322
aI258
aI258
aI258
aI322
aI258
aI258
aI258
aI353
aI307
aI278
aI353
aI307
aI278
aI353
aI307
aI278
aI351
aI304
aI304
aI304
aI304
aI304
aI278
aI277
aI277
aI277
aI278
aI353
aI353
aI307
aI278
aI353
aI304
aI278
aI304
aI278
aI322
aI258
aI258
aI258
aI375
aI322
aI258
aI258
aI258
aI322
aI258
aI258
aI258
aI318
aI257
aI257
aI376
aI298
aI366
aI376
aI318
aI257
aI257
aI322
aI258
aI258
aI258
aI386
aI318
aI257
aI257
aI386
aI318
aI257
aI257
aI386
aI318
aI257
aI257
aI304
aI304
aI277
aI304
aI277
aI304
aI304
aI304
aI277
aI304
aI277
aI304
aI277
aI304
aI277
aI304
aI322
aI258
aI258
aI258
aI322
aI258
aI258
aI258
aI338
aI330
aI331
aI331
aI331
aI293
aI366
aI293
aI256
aI257
aI257
aI257
aI257
aI257
aI257
aI322
aI258
aI258
aI258
aI366
aI340
aI266
aI266
aI379
aI266
aI257
aI257
aI318
aI402
aI402
aI402
aI314
aI322
aI294
aI376
aI318
aI366
aI258
aI258
aI258
aI257
aI257
aI322
aI258
aI258
aI258
aI365
aI267
aI267
aI267
aI321
aI257
aI257
aI318
aI257
aI257
aI379
aI266
aI313
aI318
aI257
aI257
aI318
aI257
aI257
aI318
aI257
aI257
aI284
aI284
aI322
aI258
aI258
aI258
aI322
aI258
aI258
aI258
aI322
aI258
aI258
aI258
aI322
aI258
aI258
aI258
aI382
aI330
aI256
aI330
aI256
aI331
aI257
aI257
aI331
aI257
aI257
aI322
aI258
aI258
aI258
aI300
aI275
aI300
aI275
aI347
aI302
aI275
aI346
aI291
aI344
aI267
aI267
aI344
aI267
aI267
aI344
aI267
aI267
aI318
aI257
aI257
aI318
aI257
aI257
aI318
aI257
aI257
aI318
aI257
aI257
aI284
aI259
aI284
aI259
aI322
aI258
aI258
aI258
aI347
aI310
aI346
aI302
aI275
aI353
aI307
aI278
aI353
aI310
aI307
aI341
aI269
aI269
aI323
aI258
aI258
aI258
aI363
aI267
aI321
aI257
aI257
aI321
aI257
aI257
aI318
aI257
aI257
aI318
aI257
aI257
aI318
aI257
aI257
aI386
aI302
aI384
aI349
aI266
aI302
aI366
aI412
aI290
aI260
aI260
aI390
aI357
aI266
aI372
aI372
aI318
aI257
aI257
aI357
aI271
aI304
aI304
aI277
aI304
aI277
aI304
aI277
aI304
aI277
aI304
aI277
aI322
aI258
aI258
aI258
aI330
aI256
aI382
aI330
aI256
aI310
aI346
aI302
aI275
aI347
aI353
aI307
aI278
aI353
aI310
aI307
aI341
aI269
aI269
aI330
aI256
aI379
aI266
aI330
aI256
aI379
aI266
aI318
aI257
aI257
aI377
aI406
aI372
aI372
aI378
aI407
aI372
aI372
aI372
aI347
aI310
aI353
aI307
aI352
aI266
aI341
aI269
aI269
aI306
aI369
aI310
aI346
aI302
aI275
aI382
aI330
aI256
aI331
aI257
aI257
aI331
aI257
aI257
aI331
aI257
aI257
aI322
aI258
aI258
aI258
aI318
aI257
aI257
aI375
aI318
aI257
aI257
aI318
aI257
aI257
aI322
aI258
aI258
aI258
aI304
aI277
aI304
aI277
aI304
aI277
aI304
aI277
aI304
aI277
aI304
aI322
aI258
aI258
aI258
aI322
aI258
aI258
aI258
aI284
aI259
aI284
aI259
aI322
aI258
aI258
aI258
aI382
aI331
aI257
aI257
aI331
aI257
aI257
aI330
aI256
aI379
aI266
aI330
aI256
aI377
aI406
aI372
aI372
aI379
aI266
aI292
aI322
aI258
aI258
aI258
aI344
aI267
aI267
aI344
aI267
aI267
aI305
aI305
aI353
aI307
aI352
aI266
aI306
aI369
aI278
aI278
aI278
aI258
aI258
aI258
aI322
aI257
aI257
aI318
aI386
aI268
aI275
aI293
aI366
aI338
aI322
aI258
aI258
aI258
aI322
aI258
aI258
aI258
aI382
aI331
aI257
aI257
aI331
aI257
aI257
aI331
aI257
aI257
aI330
aI256
aI377
aI406
aI372
aI372
aI379
aI266
aI304
aI277
aI304
aI277
aI304
aI304
aI277
aI304
aI277
aI304
aI322
aI258
aI258
aI258
aI322
aI258
aI258
aI258
aI382
aI331
aI331
aI257
aI257
aI257
aI257
aI330
aI256
aI379
aI266
aI330
aI256
aI379
aI266
aI322
aI258
aI258
aI258
aI375
aI318
aI257
aI257
aI318
aI257
aI257
aI318
aI257
aI257
aI322
aI258
aI258
aI258
aI322
aI258
aI258
aI258
aI318
aI257
aI257
aI376
aI294
aI366
aI322
aI258
aI258
aI258
aI315
aI256
aI376
aI294
aI366
aI322
aI258
aI258
aI258
aI271
aI357
aI286
aI259
aI284
aI259
aI318
aI257
aI257
aI286
aI259
aI288
aI293
aI366
aI340
aI266
aI266
aI304
aI304
aI304
aI304
aI304
aI304
aI277
aI277
aI277
aI277
aI277
aI318
aI257
aI257
aI339
aI266
aI293
aI366
aI322
aI258
aI258
aI258
aI358
aI272
aI272
aI318
aI257
aI257
aI294
aI366
aI379
aI266
aI364
aI267
aI267
aI333
aI257
aI257
aI331
aI257
aI257
aI331
aI257
aI257
aI333
aI257
aI257
aI322
aI258
aI258
aI258
aI318
aI257
aI257
aI318
aI257
aI257
aI294
aI366
aI376
aI322
aI258
aI258
aI258
aI304
aI277
aI304
aI277
aI304
aI277
aI304
aI277
aI304
aI277
aI304
aI316
aI401
aI401
aI407
aI372
aI372
aI372
aI406
aI372
aI372
aI377
aI377
aI322
aI318
aI257
aI257
aI318
aI257
aI257
aI376
aI294
aI366
aI322
aI258
aI258
aI258
aI315
aI256
aI376
aI294
aI366
aI322
aI258
aI258
aI258
aI304
aI304
aI304
aI304
aI304
aI304
aI277
aI277
aI277
aI277
aI277
aI295
aI367
aI367
aI322
aI258
aI258
aI258
aI297
aI368
aI288
aI259
aI290
aI260
aI260
aI313
aI393
aI393
aI393
aI322
aI258
aI258
aI258
aI304
aI277
aI304
aI277
aI304
aI277
aI304
aI277
aI304
aI277
aI304
aI316
aI401
aI401
aI406
aI379
aI266
aI372
aI372
aI352
aI305
aI278
aI306
aI369
aI352
aI266
aI306
aI369
aI305
aI278
aI266
aI351
aI304
aI304
aI304
aI304
aI304
aI341
aI341
aI278
aI277
aI278
aI269
aI269
aI269
aI269
aI382
aI330
aI256
aI331
aI257
aI257
aI331
aI257
aI257
aI330
aI256
aI379
aI266
aI300
aI275
aI300
aI275
aI347
aI302
aI275
aI346
aI315
aI379
aI266
aI256
aI318
aI257
aI257
aI315
aI256
aI318
aI257
aI257
aI318
aI257
aI257
aI315
aI256
aI334
aI256
aI331
aI257
aI257
aI331
aI257
aI257
aI330
aI256
aI334
aI322
aI258
aI258
aI258
aI315
aI256
aI379
aI266
aI318
aI257
aI257
aI315
aI256
aI313
aI322
aI258
aI258
aI258
aI318
aI257
aI257
aI318
aI257
aI257
aI315
aI256
aI322
aI258
aI258
aI258
aI318
aI257
aI257
aI318
aI257
aI257
aI295
aI367
aI367
aI304
aI304
aI305
aI305
aI304
aI304
aI278
aI277
aI277
aI305
aI277
aI277
aI305
aI278
aI374
aI306
aI369
aI331
aI257
aI257
aI330
aI256
aI331
aI257
aI257
aI334
aI256
aI327
aI257
aI257
aI334
aI256
aI310
aI346
aI302
aI275
aI347
aI353
aI307
aI278
aI353
aI310
aI307
aI341
aI269
aI269
aI300
aI275
aI300
aI275
aI346
aI302
aI275
aI373
aI360
aI266
aI300
aI275
aI300
aI274
aI331
aI257
aI257
aI331
aI257
aI257
aI362
aI321
aI323
aI323
aI323
aI270
aI270
aI270
aI270
aI270
aI270
aI270
aI270
aI270
aI270
aI270
aI318
aI257
aI257
aI406
aI372
aI372
aI377
aI377
aI318
aI257
aI257
aI315
aI256
aI379
aI266
aI318
aI257
aI257
aI379
aI266
aI315
aI379
aI266
aI256
aI318
aI257
aI257
aI284
aI284
aI259
aI318
aI257
aI257
aI315
aI256
aI334
aI256
aI331
aI257
aI257
aI331
aI257
aI257
aI330
aI256
aI334
aI258
aI258
aI258
aI318
aI257
aI257
aI318
aI257
aI257
aI315
aI256
aI313
aI258
aI258
aI258
aI318
aI257
aI257
aI318
aI257
aI257
aI322
aI258
aI258
aI258
aI369
aI306
aI305
aI305
aI354
aI305
aI305
aI278
aI278
aI278
aI278
aI309
aI304
aI304
aI304
aI304
aI304
aI277
aI277
aI277
aI277
aI277
aI382
aI331
aI331
aI331
aI331
aI257
aI257
aI257
aI257
aI257
aI257
aI257
aI257
aI300
aI275
aI300
aI275
aI346
aI346
aI373
aI360
aI266
aI346
aI301
aI275
aI331
aI257
aI257
aI331
aI257
aI257
aI267
aI352
aI305
aI279
aI305
aI279
aI305
aI279
aI305
aI305
aI279
aI293
aI366
aI340
aI266
aI266
aI406
aI372
aI372
aI377
aI341
aI266
aI322
aI258
aI258
aI258
aI322
aI258
aI258
aI258
aI300
aI275
aI300
aI274
aI300
aI274
aI300
aI275
aI385
aI304
aI304
aI304
aI305
aI305
aI304
aI277
aI277
aI277
aI277
aI306
aI369
aI352
aI266
aI306
aI384
aI352
aI266
aI318
aI257
aI257
aI377
aI406
aI372
aI372
aI379
aI266
aI382
aI331
aI257
aI257
aI330
aI256
aI331
aI257
aI257
aI331
aI257
aI257
aI334
aI256
aI331
aI257
aI257
aI331
aI257
aI257
aI334
aI256
aI331
aI257
aI257
aI331
aI257
aI257
aI331
aI257
aI257
aI313
aI318
aI257
aI257
aI318
aI257
aI257
aI318
aI257
aI257
aI289
aI289
aI288
aI259
aI288
aI259
aI289
aI289
aI259
aI288
aI259
aI288
aI259
aI289
aI289
aI259
aI318
aI257
aI257
aI379
aI266
aI322
aI258
aI258
aI258
aI322
aI258
aI258
aI258
aI322
aI258
aI258
aI258
aI322
aI258
aI258
aI258
aI322
aI258
aI258
aI258
aI304
aI277
aI304
aI277
aI304
aI379
aI266
aI304
aI277
aI304
aI277
aI304
aI343
aI371
aI371
aI304
aI304
aI304
aI305
aI305
aI304
aI266
aI305
aI305
aI306
aI352
aI277
aI277
aI277
aI277
aI278
aI278
aI369
aI258
aI322
aI319
aI400
aI261
aI261
aI258
aI258
aI293
aI366
aI338
aI322
aI258
aI258
aI258
aI322
aI258
aI258
aI258
aI322
aI258
aI258
aI258
aI322
aI258
aI258
aI258
aI375
aI318
aI257
aI257
aI318
aI257
aI257
aI375
aI322
aI258
aI258
aI258
aI317
aI256
aI364
aI267
aI267
aI321
aI257
aI257
aI318
aI257
aI257
aI318
aI257
aI257
aI318
aI257
aI257
aI322
aI258
aI258
aI258
aI293
aI366
aI339
aI266
aI318
aI257
aI257
aI382
aI302
aI366
aI331
aI257
aI257
aI331
aI257
aI257
aI331
aI257
aI257
aI382
aI330
aI256
aI330
aI256
aI352
aI305
aI278
aI306
aI369
aI352
aI266
aI306
aI369
aI305
aI322
aI258
aI258
aI258
aI331
aI257
aI257
aI330
aI256
aI377
aI406
aI372
aI372
aI377
aI322
aI258
aI258
aI258
aI318
aI257
aI257
aI266
aI379
aI364
aI267
aI267
aI333
aI257
aI257
aI300
aI274
aI300
aI274
aI333
aI257
aI257
aI382
aI331
aI257
aI257
aI331
aI257
aI257
aI330
aI256
aI379
aI266
aI330
aI256
aI377
aI406
aI372
aI372
aI379
aI266
aI360
aI266
aI331
aI257
aI257
aI300
aI274
aI300
aI274
aI331
aI257
aI257
aI304
aI277
aI304
aI341
aI269
aI269
aI304
aI277
aI304
aI278
aI304
aI278
aI351
aI258
aI258
aI258
aI322
aI257
aI257
aI318
aI386
aI322
aI258
aI258
aI258
aI304
aI277
aI304
aI277
aI304
aI277
aI304
aI277
aI304
aI277
aI304
aI294
aI366
aI379
aI266
aI390
aI358
aI266
aI266
aI372
aI372
aI377
aI322
aI258
aI258
aI258
aI322
aI258
aI258
aI258
aI281
aI281
aI322
aI258
aI258
aI258
aI352
aI266
aI306
aI369
aI305
aI278
aI305
aI278
aI305
aI278
aI305
aI278
aI362
aI321
aI323
aI323
aI323
aI270
aI270
aI270
aI270
aI270
aI270
aI270
aI270
aI270
aI270
aI270
aI318
aI257
aI257
aI406
aI372
aI372
aI377
aI377
aI322
aI258
aI258
aI258
aI304
aI277
aI304
aI277
aI304
aI277
aI304
aI277
aI304
aI277
aI304
aI390
aI372
aI372
aI358
aI266
aI266
aI381
aI327
aI257
aI257
aI327
aI257
aI257
aI360
aI266
aI331
aI257
aI257
aI331
aI257
aI257
aI331
aI257
aI257
aI331
aI257
aI257
aI353
aI304
aI278
aI304
aI277
aI304
aI277
aI304
aI304
aI277
aI304
aI277
aI304
aI278
aI353
aI307
aI383
aI318
aI257
aI257
aI383
aI318
aI257
aI257
aI318
aI257
aI257
aI318
aI257
aI257
aI353
aI307
aI353
aI304
aI304
aI304
aI278
aI277
aI278
aI386
aI322
aI258
aI258
aI258
aI331
aI257
aI257
aI331
aI257
aI257
aI331
aI257
aI257
aI334
aI256
aI327
aI257
aI257
aI334
aI347
aI310
aI353
aI307
aI352
aI266
aI341
aI269
aI269
aI306
aI369
aI310
aI346
aI302
aI275
aI322
aI258
aI258
aI258
aI293
aI366
aI339
aI266
aI315
aI256
aI322
aI258
aI258
aI258
aI293
aI366
aI339
aI266
aI322
aI258
aI258
aI258
aI353
aI307
aI352
aI306
aI305
aI305
aI266
aI278
aI278
aI369
aI386
aI322
aI258
aI258
aI258
aI381
aI327
aI257
aI257
aI327
aI256
aI318
aI257
aI257
aI322
aI258
aI258
aI258
aI315
aI379
aI266
aI256
aI318
aI257
aI257
aI315
aI256
aI318
aI257
aI257
aI318
aI257
aI257
aI315
aI256
aI334
aI256
aI331
aI257
aI257
aI331
aI257
aI257
aI330
aI256
aI334
aI322
aI258
aI258
aI258
aI318
aI257
aI257
aI318
aI257
aI257
aI315
aI256
aI313
aI322
aI258
aI258
aI258
aI318
aI257
aI257
aI318
aI257
aI257
aI315
aI256
aI322
aI258
aI258
aI258
aI318
aI257
aI257
aI318
aI257
aI257
aI295
aI367
aI367
aI315
aI379
aI266
aI256
aI318
aI257
aI257
aI315
aI256
aI318
aI257
aI257
aI315
aI379
aI266
aI256
aI315
aI256
aI334
aI256
aI331
aI257
aI257
aI331
aI257
aI257
aI330
aI256
aI334
aI322
aI258
aI258
aI258
aI318
aI257
aI257
aI318
aI257
aI257
aI315
aI256
aI313
aI322
aI258
aI258
aI258
aI318
aI257
aI257
aI318
aI257
aI257
aI315
aI256
aI322
aI258
aI258
aI258
aI318
aI257
aI257
aI318
aI257
aI257
aI293
aI366
aI339
aI266
aI315
aI256
aI295
aI367
aI367
aI318
aI318
aI293
aI366
aI339
aI266
aI304
aI304
aI277
aI304
aI277
aI304
aI277
aI304
aI277
aI304
aI277
aI258
aI258
aI258
aI322
aI387
aI387
aI322
aI258
aI258
aI258
aI378
aI406
aI372
aI372
aI356
aI286
aI259
aI284
aI259
aI318
aI257
aI288
aI286
aI259
aI293
aI366
aI340
aI385
aI300
aI275
aI300
aI274
aI310
aI304
aI277
aI304
aI277
aI304
aI277
aI304
aI277
aI310
aI385
aI302
aI275
aI346
aI310
aI304
aI277
aI304
aI277
aI304
aI277
aI304
aI277
aI310
aI322
aI377
aI406
aI378
aI372
aI372
aI406
aI379
aI266
aI372
aI372
aI258
aI258
aI258
aI382
aI330
aI256
aI330
aI256
aI310
aI346
aI302
aI275
aI347
aI353
aI307
aI278
aI353
aI310
aI307
aI341
aI269
aI269
aI331
aI257
aI257
aI330
aI256
aI377
aI406
aI372
aI372
aI377
aI322
aI258
aI258
aI258
aI318
aI257
aI257
aI266
aI379
aI378
aI406
aI372
aI372
aI352
aI305
aI279
aI305
aI279
aI305
aI279
aI305
aI305
aI279
aI293
aI366
aI340
aI380
aI318
aI322
aI257
aI257
aI258
aI258
aI258
aI382
aI330
aI256
aI330
aI256
aI331
aI257
aI257
aI300
aI275
aI300
aI275
aI347
aI302
aI275
aI346
aI318
aI257
aI257
aI379
aI266
aI256
aI330
aI341
aI266
aI406
aI372
aI372
aI377
aI322
aI258
aI258
aI258
aI322
aI258
aI258
aI258
aI318
aI257
aI257
aI318
aI257
aI257
aI318
aI257
aI257
aI322
aI258
aI258
aI258
aI350
aI300
aI275
aI300
aI274
aI300
aI274
aI300
aI275
aI347
aI266
aI300
aI275
aI303
aI300
aI274
aI300
aI275
aI315
aI396
aI396
aI256
aI322
aI258
aI258
aI258
aI304
aI278
aI304
aI277
aI304
aI277
aI304
aI277
aI304
aI278
aI308
aI404
aI322
aI258
aI258
aI258
aI318
aI257
aI257
aI375
aI318
aI257
aI257
aI322
aI258
aI258
aI258
aI382
aI331
aI257
aI257
aI330
aI256
aI330
aI256
aI379
aI266
aI330
aI256
aI379
aI266
aI322
aI258
aI258
aI258
aI327
aI257
aI257
aI327
aI257
aI257
aI327
aI257
aI257
aI382
aI330
aI256
aI330
aI256
aI331
aI257
aI257
aI300
aI275
aI300
aI275
aI347
aI302
aI275
aI346
aI256
aI330
aI358
aI272
aI272
aI318
aI257
aI257
aI379
aI266
aI347
aI266
aI302
aI275
aI346
aI310
aI304
aI277
aI304
aI277
aI304
aI277
aI304
aI277
aI310
aI275
aI300
aI310
aI347
aI266
aI300
aI275
aI310
aI304
aI277
aI304
aI277
aI304
aI277
aI304
aI277
aI315
aI379
aI266
aI256
aI318
aI257
aI257
aI315
aI256
aI318
aI257
aI257
aI315
aI379
aI266
aI256
aI315
aI256
aI334
aI256
aI331
aI257
aI257
aI331
aI257
aI257
aI330
aI256
aI334
aI322
aI258
aI258
aI258
aI315
aI256
aI379
aI266
aI318
aI257
aI257
aI315
aI256
aI313
aI322
aI258
aI258
aI258
aI318
aI257
aI257
aI318
aI257
aI257
aI315
aI256
aI322
aI258
aI258
aI258
aI318
aI257
aI257
aI318
aI257
aI257
aI295
aI367
aI367
aI275
aI296
aI366
aI304
aI304
aI277
aI304
aI277
aI304
aI277
aI304
aI277
aI304
aI277
aI346
aI301
aI275
aI331
aI257
aI257
aI310
aI304
aI277
aI304
aI277
aI304
aI277
aI304
aI277
aI310
aI300
aI275
aI300
aI274
aI301
aI275
aI346
aI385
aI300
aI275
aI300
aI274
aI301
aI275
aI346
aI373
aI313
aI318
aI257
aI257
aI318
aI257
aI257
aI318
aI257
aI257
aI289
aI289
aI288
aI259
aI288
aI259
aI289
aI289
aI259
aI288
aI259
aI288
aI259
aI289
aI289
aI259
aI322
aI258
aI258
aI258
aI322
aI258
aI258
aI258
aI322
aI258
aI258
aI258
aI322
aI258
aI258
aI258
aI322
aI258
aI258
aI258
aI293
aI366
aI339
aI266
aI304
aI304
aI277
aI304
aI277
aI304
aI277
aI304
aI277
aI304
aI379
aI266
aI302
aI275
aI346
aI302
aI275
aI346
aI373
aI322
aI258
aI258
aI258
aI352
aI305
aI278
aI306
aI369
aI352
aI266
aI306
aI369
aI305
aI322
aI258
aI258
aI258
aI304
aI278
aI353
aI353
aI304
aI278
aI304
aI304
aI277
aI304
aI277
aI304
aI277
aI304
aI277
aI304
aI383
aI318
aI257
aI257
aI321
aI257
aI257
aI364
aI267
aI267
aI321
aI257
aI257
aI318
aI257
aI257
aI304
aI304
aI277
aI304
aI277
aI304
aI277
aI304
aI304
aI322
aI258
aI258
aI258
aI322
aI258
aI258
aI258
aI322
aI258
aI258
aI258
aI382
aI330
aI256
aI330
aI256
aI300
aI275
aI300
aI275
aI347
aI302
aI275
aI346
aI331
aI257
aI257
aI330
aI256
aI377
aI406
aI372
aI372
aI377
aI322
aI258
aI258
aI258
aI318
aI257
aI257
aI266
aI379
aI306
aI306
aI305
aI305
aI266
aI266
aI278
aI278
aI369
aI384
aI352
aI352
aI322
aI258
aI258
aI258
aI293
aI366
aI339
aI266
aI322
aI258
aI258
aI258
aI304
aI277
aI304
aI277
aI304
aI277
aI304
aI277
aI304
aI277
aI304
aI361
aI266
aI361
aI266
aI266
aI351
aI304
aI304
aI304
aI304
aI304
aI278
aI277
aI277
aI278
aI322
aI258
aI258
aI258
aI382
aI331
aI257
aI257
aI330
aI256
aI331
aI257
aI257
aI330
aI256
aI377
aI406
aI372
aI372
aI377
aI322
aI258
aI258
aI258
aI322
aI258
aI258
aI258
aI310
aI347
aI266
aI302
aI275
aI346
aI353
aI307
aI278
aI353
aI310
aI304
aI278
aI349
aI266
aI302
aI366
aI331
aI257
aI257
aI331
aI257
aI257
aI331
aI257
aI257
aI310
aI346
aI302
aI275
aI347
aI266
aI353
aI307
aI278
aI353
aI310
aI304
aI278
aI386
aI268
aI318
aI257
aI257
aI318
aI257
aI257
aI322
aI258
aI258
aI258
aI322
aI258
aI258
aI258
aI379
aI266
aI315
aI256
aI318
aI257
aI257
aI322
aI258
aI258
aI258
aI347
aI346
aI346
aI300
aI275
aI300
aI275
aI318
aI257
aI257
aI322
aI258
aI258
aI258
aI347
aI266
aI300
aI322
aI258
aI258
aI258
aI346
aI300
aI275
aI302
aI275
aI304
aI277
aI304
aI277
aI304
aI277
aI304
aI277
aI304
aI304
aI322
aI258
aI258
aI258
aI322
aI258
aI258
aI258
aI285
aI260
aI260
aI286
aI259
aI358
aI272
aI272
aI388
aI320
aI258
aI258
aI258
aI351
aI304
aI304
aI304
aI304
aI304
aI278
aI277
aI277
aI278
aI318
aI257
aI257
aI379
aI266
aI322
aI258
aI258
aI258
aI376
aI298
aI366
aI376
aI322
aI258
aI258
aI258
aI322
aI258
aI258
aI258
aI339
aI266
aI298
aI366
aI376
aI322
aI258
aI258
aI258
aI382
aI331
aI257
aI257
aI330
aI256
aI331
aI257
aI257
aI331
aI257
aI257
aI318
aI257
aI257
aI379
aI266
aI304
aI277
aI304
aI277
aI304
aI277
aI304
aI277
aI309
aI309
aI304
aI277
aI304
aI277
aI304
aI277
aI304
aI277
aI310
aI331
aI257
aI257
aI310
aI258
aI258
aI258
aI322
aI386
aI268
aI372
aI391
aI322
aI258
aI258
aI258
aI318
aI257
aI257
aI322
aI258
aI258
aI258
aI390
aI372
aI372
aI322
aI258
aI258
aI258
aI318
aI257
aI257
aI322
aI258
aI258
aI258
aI357
aI271
aI325
aI325
aI264
aI264
aI264
aI264
aI264
aI264
aI386
aI318
aI257
aI257
aI318
aI257
aI257
aI386
aI318
aI257
aI257
aI318
aI257
aI257
aI360
aI266
aI364
aI267
aI267
aI333
aI257
aI257
aI331
aI257
aI257
aI331
aI257
aI257
aI351
aI304
aI308
aI304
aI304
aI304
aI278
aI404
aI278
aI277
aI278
aI330
aI256
aI377
aI406
aI372
aI372
aI377
aI322
aI258
aI258
aI258
aI331
aI257
aI257
aI331
aI257
aI257
aI334
aI256
aI334
aI256
aI327
aI257
aI257
aI304
aI277
aI304
aI277
aI304
aI277
aI304
aI277
aI304
aI304
aI277
aI304
aI304
aI277
aI304
aI277
aI304
aI277
aI304
aI277
aI304
aI351
aI304
aI331
aI257
aI257
aI331
aI257
aI257
aI331
aI257
aI257
aI334
aI256
aI327
aI257
aI257
aI334
aI352
aI305
aI278
aI306
aI369
aI353
aI307
aI341
aI269
aI269
aI305
aI278
aI389
aI372
aI372
aI372
aI341
aI266
aI322
aI258
aI258
aI258
aI321
aI257
aI257
aI343
aI371
aI371
aI318
aI257
aI257
aI322
aI258
aI258
aI258
aI382
aI331
aI257
aI257
aI331
aI257
aI257
aI331
aI257
aI257
aI330
aI256
aI377
aI406
aI372
aI372
aI377
aI322
aI258
aI258
aI258
aI346
aI301
aI275
aI331
aI257
aI257
aI300
aI274
aI300
aI275
aI386
aI318
aI257
aI257
aI321
aI257
aI257
aI364
aI267
aI267
aI321
aI257
aI257
aI318
aI257
aI257
aI298
aI266
aI367
aI367
aI379
aI378
aI406
aI372
aI372
aI352
aI305
aI279
aI305
aI279
aI305
aI279
aI305
aI305
aI279
aI293
aI366
aI340
aI300
aI275
aI300
aI275
aI346
aI302
aI275
aI385
aI304
aI277
aI304
aI277
aI304
aI277
aI304
aI304
aI277
aI304
aI277
aI315
aI256
aI322
aI258
aI258
aI258
aI322
aI258
aI258
aI258
aI382
aI331
aI257
aI257
aI330
aI256
aI331
aI257
aI257
aI330
aI256
aI377
aI407
aI372
aI372
aI372
aI322
aI258
aI258
aI258
aI318
aI257
aI257
aI318
aI257
aI257
aI318
aI257
aI257
aI318
aI257
aI257
aI375
aI304
aI304
aI277
aI304
aI277
aI304
aI277
aI304
aI277
aI304
aI292
aI344
aI267
aI267
aI344
aI267
aI267
aI318
aI257
aI257
aI375
aI304
aI304
aI277
aI304
aI277
aI304
aI277
aI304
aI277
aI304
aI292
aI344
aI267
aI267
aI344
aI267
aI267
aI382
aI331
aI257
aI257
aI331
aI257
aI257
aI331
aI257
aI257
aI330
aI256
aI377
aI407
aI372
aI372
aI372
aI382
aI330
aI256
aI330
aI256
aI331
aI257
aI257
aI256
aI330
aI379
aI266
aI318
aI257
aI257
aI379
aI266
aI300
aI275
aI300
aI275
aI347
aI302
aI275
aI346
aI304
aI277
aI304
aI277
aI304
aI277
aI304
aI277
aI304
aI277
aI304
aI318
aI257
aI257
aI406
aI379
aI266
aI372
aI372
aI322
aI258
aI258
aI258
aI390
aI372
aI372
aI357
aI266
aI304
aI304
aI277
aI304
aI277
aI304
aI277
aI304
aI277
aI304
aI277
aI382
aI331
aI257
aI257
aI330
aI256
aI330
aI261
aI400
aI330
aI256
aI377
aI407
aI372
aI372
aI372
aI322
aI258
aI258
aI258
aI389
aI372
aI372
aI372
aI318
aI257
aI257
aI318
aI257
aI257
aI322
aI258
aI258
aI258
aI382
aI302
aI331
aI257
aI257
aI300
aI274
aI300
aI275
aI366
aI364
aI267
aI267
aI321
aI257
aI257
aI321
aI257
aI257
aI318
aI257
aI257
aI318
aI257
aI257
aI318
aI257
aI257
aI390
aI322
aI258
aI258
aI258
aI372
aI372
aI377
aI304
aI304
aI277
aI304
aI277
aI304
aI277
aI304
aI277
aI304
aI277
aI322
aI258
aI258
aI258
aI289
aI289
aI259
aI293
aI366
aI339
aI266
aI322
aI258
aI258
aI258
aI322
aI258
aI258
aI258
aI352
aI305
aI278
aI306
aI369
aI352
aI266
aI306
aI369
aI305
aI278
aI382
aI330
aI256
aI331
aI257
aI257
aI331
aI257
aI257
aI331
aI257
aI257
aI382
aI331
aI257
aI257
aI330
aI256
aI330
aI261
aI400
aI330
aI256
aI377
aI407
aI372
aI372
aI372
aI322
aI258
aI258
aI258
aI351
aI304
aI304
aI304
aI304
aI278
aI277
aI277
aI278
aI304
aI379
aI266
aI352
aI305
aI278
aI306
aI369
aI352
aI266
aI306
aI369
aI305
aI322
aI258
aI258
aI258
aI382
aI330
aI256
aI331
aI257
aI257
aI331
aI257
aI257
aI331
aI257
aI257
aI309
aI309
aI304
aI277
aI304
aI277
aI304
aI277
aI304
aI277
aI304
aI277
aI304
aI277
aI304
aI277
aI304
aI277
aI304
aI295
aI367
aI367
aI304
aI295
aI367
aI367
aI304
aI304
aI277
aI304
aI277
aI304
aI277
aI304
aI277
aI304
aI277
aI318
aI257
aI257
aI318
aI257
aI257
aI318
aI257
aI257
aI322
aI258
aI258
aI258
aI322
aI377
aI406
aI378
aI372
aI372
aI407
aI372
aI372
aI372
aI258
aI258
aI258
aI364
aI267
aI267
aI333
aI331
aI331
aI332
aI293
aI366
aI256
aI257
aI257
aI257
aI257
aI257
aI257
aI340
aI266
aI266
aI353
aI353
aI304
aI278
aI304
aI277
aI304
aI304
aI277
aI304
aI277
aI304
aI277
aI304
aI277
aI304
aI304
aI304
aI277
aI304
aI277
aI304
aI277
aI304
aI277
aI304
aI277
aI318
aI257
aI257
aI322
aI258
aI258
aI258
aI323
aI258
aI258
aI258
aI343
aI371
aI371
aI304
aI277
aI304
aI277
aI304
aI277
aI304
aI277
aI304
aI277
aI304
aI318
aI257
aI257
aI407
aI372
aI372
aI372
aI290
aI260
aI260
aI288
aI259
aI295
aI367
aI367
aI315
aI379
aI266
aI256
aI318
aI257
aI257
aI284
aI313
aI318
aI257
aI257
aI318
aI257
aI257
aI258
aI258
aI258
aI284
aI259
aI318
aI257
aI257
aI318
aI257
aI257
aI318
aI257
aI257
aI318
aI293
aI340
aI266
aI266
aI366
aI257
aI257
aI322
aI258
aI258
aI258
aI290
aI260
aI260
aI288
aI259
aI296
aI366
aI275
aI322
aI258
aI258
aI258
aI377
aI406
aI372
aI372
aI378
aI406
aI372
aI372
aI378
aI407
aI372
aI372
aI372
aI346
aI331
aI257
aI257
aI300
aI274
aI300
aI274
aI301
aI275
aI348
aI267
aI333
aI257
aI257
aI300
aI274
aI300
aI274
aI301
aI275
aI318
aI257
aI257
aI377
aI406
aI372
aI372
aI377
aI322
aI258
aI258
aI258
aI331
aI257
aI257
aI331
aI257
aI257
aI334
aI330
aI256
aI379
aI266
aI334
aI256
aI327
aI257
aI257
aI322
aI258
aI258
aI258
aI318
aI257
aI257
aI375
aI322
aI258
aI258
aI258
aI322
aI380
aI258
aI258
aI258
aI354
aI306
aI384
aI304
aI278
aI304
aI278
aI352
aI266
aI306
aI384
aI309
aI304
aI304
aI304
aI304
aI304
aI277
aI277
aI277
aI277
aI277
aI407
aI377
aI372
aI372
aI372
aI318
aI257
aI257
aI322
aI258
aI258
aI258
aI330
aI256
aI382
aI330
aI256
aI310
aI346
aI302
aI275
aI347
aI353
aI307
aI278
aI353
aI310
aI307
aI341
aI269
aI269
aI330
aI256
aI379
aI266
aI330
aI256
aI379
aI266
aI318
aI257
aI257
aI377
aI407
aI372
aI372
aI372
aI352
aI305
aI278
aI306
aI369
aI353
aI307
aI341
aI269
aI269
aI305
aI278
aI382
aI330
aI256
aI331
aI257
aI257
aI331
aI257
aI257
aI331
aI257
aI257
aI322
aI258
aI258
aI258
aI347
aI266
aI300
aI318
aI257
aI257
aI346
aI300
aI275
aI302
aI275
aI258
aI258
aI258
aI322
aI402
aI402
aI402
aI314
aI304
aI304
aI353
aI307
aI352
aI266
aI306
aI384
aI278
aI278
aI278
aI374
aI286
aI259
aI284
aI259
aI318
aI257
aI257
aI284
aI259
aI286
aI259
aI389
aI372
aI372
aI372
aI318
aI257
aI257
aI318
aI257
aI257
aI339
aI266
aI293
aI366
aI322
aI258
aI258
aI258
aI374
aI318
aI257
aI257
aI289
aI259
aI289
aI259
aI288
aI259
aI286
aI259
aI354
aI306
aI384
aI304
aI278
aI304
aI278
aI353
aI307
aI278
aI309
aI304
aI304
aI304
aI304
aI304
aI277
aI277
aI277
aI277
aI277
aI285
aI260
aI260
aI284
aI259
aI318
aI257
aI257
aI284
aI259
aI285
aI260
aI260
aI351
aI304
aI304
aI304
aI304
aI304
aI278
aI277
aI277
aI278
aI318
aI257
aI257
aI318
aI257
aI257
aI318
aI257
aI257
aI322
aI258
aI258
aI258
aI315
aI392
aI392
aI256
aI322
aI258
aI258
aI258
aI304
aI304
aI277
aI304
aI277
aI304
aI277
aI304
aI315
aI256
aI322
aI258
aI258
aI258
aI322
aI258
aI258
aI258
aI304
aI379
aI266
aI318
aI257
aI257
aI318
aI257
aI257
aI295
aI367
aI367
aI304
aI277
aI304
aI277
aI304
aI277
aI304
aI277
aI304
aI277
aI304
aI343
aI371
aI371
aI318
aI395
aI257
aI257
aI322
aI258
aI258
aI258
aI321
aI365
aI257
aI257
aI267
aI267
aI267
aI322
aI258
aI258
aI258
aI304
aI277
aI304
aI277
aI304
aI277
aI304
aI277
aI304
aI351
aI304
aI304
aI277
aI304
aI277
aI304
aI277
aI304
aI277
aI304
aI351
aI304
aI360
aI266
aI333
aI257
aI257
aI364
aI267
aI267
aI333
aI257
aI257
aI331
aI257
aI257
aI358
aI326
aI272
aI272
aI265
aI265
aI265
aI351
aI304
aI304
aI304
aI304
aI304
aI278
aI277
aI278
aI322
aI258
aI258
aI258
aI322
aI258
aI258
aI258
aI368
aI297
aI322
aI322
aI258
aI258
aI258
aI258
aI258
aI258
aI322
aI258
aI258
aI258
aI283
aI335
aI300
aI275
aI300
aI274
aI300
aI274
aI300
aI275
aI373
aI274
aI300
aI310
aI300
aI275
aI347
aI266
aI310
aI304
aI277
aI304
aI304
aI277
aI304
aI277
aI293
aI366
aI339
aI266
aI337
aI288
aI259
aI304
aI304
aI379
aI266
aI382
aI302
aI300
aI274
aI300
aI274
aI331
aI257
aI257
aI366
aI362
aI321
aI321
aI321
aI321
aI270
aI270
aI270
aI270
aI270
aI270
aI270
aI270
aI322
aI258
aI258
aI258
aI322
aI258
aI258
aI258
aI322
aI258
aI258
aI258
aI322
aI258
aI258
aI258
aI351
aI304
aI304
aI304
aI304
aI304
aI278
aI277
aI277
aI278
aI297
aI368
aI322
aI258
aI258
aI258
aI382
aI331
aI331
aI257
aI257
aI257
aI257
aI330
aI261
aI400
aI330
aI256
aI377
aI407
aI372
aI372
aI372
aI323
aI258
aI258
aI258
aI363
aI267
aI321
aI257
aI257
aI321
aI257
aI257
aI315
aI256
aI379
aI266
aI318
aI257
aI257
aI318
aI257
aI257
aI323
aI258
aI258
aI258
aI363
aI267
aI321
aI257
aI257
aI321
aI257
aI257
aI318
aI257
aI257
aI318
aI257
aI257
aI318
aI257
aI257
aI322
aI258
aI258
aI258
aI300
aI310
aI300
aI275
aI347
aI266
aI310
aI304
aI277
aI304
aI277
aI304
aI277
aI304
aI277
aI362
aI321
aI323
aI323
aI323
aI270
aI270
aI270
aI270
aI270
aI270
aI270
aI270
aI270
aI270
aI270
aI318
aI376
aI294
aI322
aI366
aI257
aI257
aI258
aI258
aI258
aI382
aI331
aI331
aI257
aI257
aI257
aI257
aI330
aI261
aI400
aI330
aI256
aI377
aI407
aI372
aI372
aI372
aI407
aI377
aI372
aI372
aI372
aI322
aI258
aI258
aI258
aI322
aI377
aI405
aI379
aI379
aI372
aI258
aI258
aI258
aI266
aI266
aI322
aI377
aI406
aI379
aI372
aI372
aI258
aI258
aI258
aI266
aI361
aI266
aI266
aI361
aI266
aI266
aI322
aI258
aI258
aI258
aI293
aI366
aI339
aI266
aI315
aI256
aI322
aI258
aI258
aI258
aI322
aI258
aI258
aI258
aI313
aI295
aI379
aI266
aI375
aI322
aI258
aI258
aI258
aI367
aI367
aI322
aI258
aI258
aI258
aI389
aI372
aI372
aI372
aI304
aI304
aI277
aI304
aI277
aI304
aI277
aI304
aI277
aI304
aI277
aI382
aI330
aI256
aI330
aI256
aI331
aI257
aI257
aI347
aI310
aI353
aI307
aI352
aI266
aI341
aI269
aI269
aI306
aI369
aI310
aI346
aI302
aI275
aI256
aI330
aI379
aI266
aI318
aI257
aI257
aI379
aI266
aI353
aI307
aI278
aI353
aI304
aI278
aI304
aI351
aI304
aI278
aI304
aI278
aI353
aI307
aI389
aI372
aI372
aI372
aI322
aI258
aI258
aI258
aI323
aI365
aI258
aI258
aI258
aI267
aI267
aI267
aI334
aI256
aI334
aI256
aI382
aI331
aI257
aI257
aI382
aI331
aI257
aI257
aI331
aI257
aI257
aI330
aI256
aI379
aI266
aI315
aI295
aI256
aI375
aI322
aI258
aI258
aI258
aI367
aI367
aI322
aI258
aI258
aI258
aI351
aI304
aI304
aI304
aI304
aI304
aI278
aI277
aI277
aI278
aI295
aI367
aI367
aI322
aI258
aI258
aI258
aI322
aI258
aI258
aI258
aI375
aI313
aI375
aI322
aI258
aI258
aI258
aI318
aI257
aI257
aI322
aI258
aI258
aI258
aI322
aI258
aI258
aI258
aI318
aI257
aI257
aI300
aI310
aI300
aI275
aI347
aI266
aI310
aI304
aI277
aI304
aI277
aI304
aI277
aI304
aI277
aI388
aI320
aI322
aI258
aI258
aI258
aI257
aI257
aI331
aI257
aI257
aI330
aI256
aI331
aI257
aI257
aI334
aI256
aI327
aI257
aI257
aI334
aI256
aI347
aI310
aI353
aI307
aI352
aI266
aI341
aI269
aI269
aI306
aI369
aI310
aI346
aI302
aI275
aI386
aI302
aI366
aI349
aI266
aI302
aI366
aI412
aI290
aI260
aI260
aI386
aI318
aI257
aI257
aI318
aI257
aI257
aI318
aI257
aI257
aI318
aI257
aI257
aI318
aI257
aI257
aI304
aI308
aI304
aI308
aI304
aI304
aI278
aI404
aI278
aI404
aI322
aI258
aI258
aI258
aI277
aI382
aI331
aI331
aI331
aI257
aI257
aI257
aI257
aI257
aI257
aI330
aI256
aI375
aI322
aI258
aI258
aI258
aI310
aI382
aI331
aI257
aI257
aI382
aI310
aI304
aI277
aI304
aI277
aI304
aI277
aI304
aI277
aI369
aI306
aI305
aI305
aI352
aI305
aI305
aI278
aI278
aI278
aI278
aI266
aI382
aI330
aI256
aI331
aI257
aI257
aI331
aI257
aI257
aI331
aI257
aI257
aI300
aI275
aI300
aI275
aI347
aI302
aI275
aI346
aI382
aI331
aI331
aI331
aI257
aI257
aI257
aI257
aI257
aI257
aI330
aI256
aI379
aI266
aI304
aI277
aI304
aI277
aI304
aI277
aI304
aI277
aI304
aI277
aI304
aI390
aI372
aI372
aI357
aI266
aI304
aI304
aI277
aI304
aI277
aI304
aI277
aI304
aI277
aI304
aI277
aI382
aI331
aI331
aI331
aI330
aI257
aI257
aI257
aI257
aI257
aI257
aI256
aI322
aI258
aI258
aI258
aI382
aI331
aI257
aI257
aI330
aI256
aI331
aI257
aI257
aI256
aI330
aI379
aI266
aI322
aI258
aI258
aI258
aI285
aI260
aI260
aI285
aI260
aI260
aI382
aI330
aI256
aI330
aI256
aI331
aI257
aI257
aI256
aI330
aI379
aI266
aI322
aI258
aI258
aI258
aI300
aI275
aI300
aI275
aI347
aI302
aI275
aI346
aI258
aI258
aI258
aI322
aI258
aI258
aI258
aI322
aI351
aI304
aI304
aI304
aI304
aI304
aI278
aI277
aI277
aI278
aI296
aI366
aI275
aI304
aI304
aI304
aI304
aI304
aI304
aI277
aI277
aI277
aI277
aI306
aI384
aI352
aI266
aI306
aI384
aI352
aI266
aI331
aI257
aI257
aI331
aI257
aI257
aI331
aI257
aI257
aI331
aI257
aI257
aI331
aI257
aI257
aI304
aI304
aI304
aI305
aI305
aI304
aI277
aI306
aI352
aI306
aI352
aI266
aI369
aI266
aI369
aI277
aI277
aI277
aI360
aI266
aI331
aI257
aI257
aI331
aI257
aI257
aI310
aI304
aI277
aI304
aI277
aI304
aI277
aI304
aI277
aI310
aI300
aI274
aI300
aI274
aI300
aI275
aI355
aI304
aI278
aI304
aI277
aI304
aI277
aI304
aI277
aI310
aI331
aI257
aI257
aI300
aI274
aI300
aI274
aI310
aI304
aI277
aI304
aI277
aI304
aI277
aI304
aI277
aI310
aI313
aI322
aI258
aI258
aI258
aI322
aI258
aI258
aI258
aI318
aI257
aI257
aI318
aI257
aI257
aI318
aI257
aI257
aI289
aI289
aI322
aI258
aI258
aI258
aI288
aI259
aI288
aI259
aI289
aI322
aI258
aI258
aI258
aI289
aI259
aI288
aI259
aI288
aI259
aI289
aI322
aI258
aI258
aI258
aI289
aI259
aI295
aI367
aI367
aI347
aI266
aI346
aI301
aI275
aI310
aI304
aI277
aI304
aI277
aI304
aI277
aI304
aI277
aI310
aI290
aI260
aI260
aI289
aI322
aI258
aI258
aI258
aI288
aI259
aI290
aI260
aI260
aI274
aI300
aI310
aI300
aI275
aI347
aI266
aI310
aI304
aI277
aI304
aI277
aI304
aI277
aI304
aI277
aI390
aI358
aI266
aI266
aI372
aI372
aI377
aI304
aI304
aI277
aI304
aI277
aI304
aI277
aI304
aI277
aI304
aI277
aI362
aI323
aI323
aI323
aI380
aI270
aI270
aI270
aI270
aI270
aI270
aI270
aI270
aI270
aI356
aI324
aI324
aI324
aI263
aI263
aI263
aI263
aI263
aI263
aI263
aI263
aI263
a.